; Function Attrs: mustprogress uwtable
define noundef zeroext i1 @_ZN5draco37SequentialAttributeEncodersController24EncodePortableAttributesEPNS_13EncoderBufferE(ptr noundef nonnull align 8 dereferenceable(168) %0, ptr noundef %1) unnamed_addr #3 align 2 {
  %3 = getelementptr inbounds nuw i8, ptr %0, i64 72
  %4 = getelementptr inbounds nuw i8, ptr %0, i64 80
  %5 = load ptr, ptr %4, align 8, !tbaa !27
  %6 = load ptr, ptr %3, align 8, !tbaa !22
  %7 = icmp eq ptr %5, %6
  br i1 %7, label %._crit_edge, label %.lr.ph

.lr.ph:                                           ; preds = %2
  %8 = getelementptr inbounds nuw i8, ptr %0, i64 136
  br label %18

9:                                                ; preds = %18
  %10 = add i32 %.069, 1
  %11 = zext i32 %10 to i64
  %12 = load ptr, ptr %4, align 8, !tbaa !27
  %13 = load ptr, ptr %3, align 8, !tbaa !22
  %14 = ptrtoint ptr %12 to i64
  %15 = ptrtoint ptr %13 to i64
  %16 = sub i64 %14, %15
  %17 = ashr exact i64 %16, 3
  %.not = icmp ugt i64 %17, %11
  br i1 %.not, label %18, label %._crit_edge, !llvm.loop !51

18:                                               ; preds = %.lr.ph, %9
  %19 = phi ptr [ %6, %.lr.ph ], [ %13, %9 ]
  %20 = phi i64 [ 0, %.lr.ph ], [ %11, %9 ]
  %.069 = phi i32 [ 0, %.lr.ph ], [ %10, %9 ]
  %21 = getelementptr inbounds nuw %"class.std::unique_ptr.16", ptr %19, i64 %20
  %22 = load ptr, ptr %21, align 8, !tbaa !25
  %23 = load ptr, ptr %22, align 8, !tbaa !3
  %24 = getelementptr inbounds nuw i8, ptr %23, i64 40
  %25 = load ptr, ptr %24, align 8
  %26 = tail call noundef zeroext i1 %25(ptr noundef nonnull align 8 dereferenceable(72) %22, ptr noundef nonnull align 8 dereferenceable(24) %8, ptr noundef %1)
  br i1 %26, label %9, label %._crit_edge

._crit_edge:                                      ; preds = %9, %18, %2
  %.lcssa = phi i1 [ true, %2 ], [ %26, %18 ], [ %26, %9 ]
  ret i1 %.lcssa
}